target datalayout = "e-m:e-p270:32:32-p271:32:32-p272:64:64-i64:64-i128:128-f80:128-n8:16:32:64-S128"
target triple = "x86_64-pc-linux-gnu"

%struct.ggml_backend_buffer_i = type { ptr, ptr, ptr, ptr, ptr, ptr, ptr, ptr, ptr }
%struct.ggml_backend_buffer = type { %struct.ggml_backend_buffer_i, ptr, ptr, i64, i32 }
%struct.ggml_tensor = type { i32, ptr, [4 x i64], [4 x i64], i32, [16 x i32], i32, [10 x ptr], ptr, i64, ptr, [64 x i8], ptr, [8 x i8] }

; Function Attrs: mustprogress uwtable
define zeroext i1 @ggml_backend_buffer_copy_tensor(ptr noundef %0, ptr noundef %1) #0 {
  %3 = alloca i1, align 1
  %4 = alloca ptr, align 8
  %5 = alloca ptr, align 8
  %6 = alloca ptr, align 8
  %7 = alloca i32, align 4
  store ptr %0, ptr %4, align 8, !tbaa !28
  store ptr %1, ptr %5, align 8, !tbaa !28
  call void @llvm.lifetime.start.p0(i64 8, ptr %6) #15
  %8 = load ptr, ptr %5, align 8, !tbaa !28
  %9 = getelementptr inbounds nuw %struct.ggml_tensor, ptr %8, i32 0, i32 8
  %10 = load ptr, ptr %9, align 8, !tbaa !49
  %11 = icmp ne ptr %10, null
  br i1 %11, label %12, label %18

12:                                               ; preds = %2
  %13 = load ptr, ptr %5, align 8, !tbaa !28
  %14 = getelementptr inbounds nuw %struct.ggml_tensor, ptr %13, i32 0, i32 8
  %15 = load ptr, ptr %14, align 8, !tbaa !49
  %16 = getelementptr inbounds nuw %struct.ggml_tensor, ptr %15, i32 0, i32 1
  %17 = load ptr, ptr %16, align 8, !tbaa !54
  br label %22

18:                                               ; preds = %2
  %19 = load ptr, ptr %5, align 8, !tbaa !28
  %20 = getelementptr inbounds nuw %struct.ggml_tensor, ptr %19, i32 0, i32 1
  %21 = load ptr, ptr %20, align 8, !tbaa !54
  br label %22

22:                                               ; preds = %18, %12
  %23 = phi ptr [ %17, %12 ], [ %21, %18 ]
  store ptr %23, ptr %6, align 8, !tbaa !24
  %24 = load ptr, ptr %6, align 8, !tbaa !24
  %25 = getelementptr inbounds nuw %struct.ggml_backend_buffer, ptr %24, i32 0, i32 0
  %26 = getelementptr inbounds nuw %struct.ggml_backend_buffer_i, ptr %25, i32 0, i32 6
  %27 = load ptr, ptr %26, align 8, !tbaa !55
  %28 = icmp ne ptr %27, null
  br i1 %28, label %29, label %38

29:                                               ; preds = %22
  %30 = load ptr, ptr %6, align 8, !tbaa !24
  %31 = getelementptr inbounds nuw %struct.ggml_backend_buffer, ptr %30, i32 0, i32 0
  %32 = getelementptr inbounds nuw %struct.ggml_backend_buffer_i, ptr %31, i32 0, i32 6
  %33 = load ptr, ptr %32, align 8, !tbaa !55
  %34 = load ptr, ptr %6, align 8, !tbaa !24
  %35 = load ptr, ptr %4, align 8, !tbaa !28
  %36 = load ptr, ptr %5, align 8, !tbaa !28
  %37 = call noundef zeroext i1 %33(ptr noundef %34, ptr noundef %35, ptr noundef %36)
  store i1 %37, ptr %3, align 1
  store i32 1, ptr %7, align 4
  br label %39

38:                                               ; preds = %22
  store i1 false, ptr %3, align 1
  store i32 1, ptr %7, align 4
  br label %39

39:                                               ; preds = %38, %29
  call void @llvm.lifetime.end.p0(i64 8, ptr %6) #15
  %40 = load i1, ptr %3, align 1
  ret i1 %40
}