; Function Attrs: mustprogress uwtable
define noundef zeroext i1 @ggml_backend_buffer_copy_tensor(ptr noundef %0, ptr noundef %1) local_unnamed_addr #0 {
  %3 = getelementptr inbounds nuw i8, ptr %1, i64 232
  %4 = load ptr, ptr %3, align 8, !tbaa !41
  %.not = icmp eq ptr %4, null
  %. = select i1 %.not, ptr %1, ptr %4
  %.in = getelementptr inbounds nuw i8, ptr %., i64 8
  %5 = load ptr, ptr %.in, align 8, !tbaa !47
  %6 = getelementptr inbounds nuw i8, ptr %5, i64 48
  %7 = load ptr, ptr %6, align 8, !tbaa !48
  %.not11 = icmp eq ptr %7, null
  br i1 %.not11, label %10, label %8

8:                                                ; preds = %2
  %9 = tail call noundef zeroext i1 %7(ptr noundef nonnull %5, ptr noundef %0, ptr noundef nonnull %1)
  br label %10

10:                                               ; preds = %2, %8
  %.0 = phi i1 [ %9, %8 ], [ false, %2 ]
  ret i1 %.0
}